; ModuleID = '49/1083.c'
source_filename = "49/1083.c"
target datalayout = "e-m:e-p270:32:32-p271:32:32-p272:64:64-i64:64-f80:128-n8:16:32:64-S128"
target triple = "x86_64-pc-linux-gnu"

@.str = private unnamed_addr constant [3 x i8] c"%c\00", align 1
@.str.1 = private unnamed_addr constant [2 x i8] c"\0A\00", align 1

; Function Attrs: noinline nounwind uwtable
define dso_local i32 @main() #0 {
  %1 = alloca i32, align 4
  %2 = alloca [500 x i8], align 16
  %3 = alloca i32, align 4
  %4 = alloca i32, align 4
  %5 = alloca i32, align 4
  %6 = alloca i32, align 4
  %7 = alloca [500 x i32], align 16
  %8 = alloca i32, align 4
  store i32 0, i32* %1, align 4
  %9 = getelementptr inbounds [500 x i8], [500 x i8]* %2, i64 0, i64 0
  %10 = call i32 (i8*, ...) bitcast (i32 (...)* @gets to i32 (i8*, ...)*)(i8* %9)
  %11 = getelementptr inbounds [500 x i8], [500 x i8]* %2, i64 0, i64 0
  %12 = call i64 @strlen(i8* %11) #3
  %13 = sub i64 %12, 1
  %14 = trunc i64 %13 to i32
  store i32 %14, i32* %6, align 4
  store i32 0, i32* %3, align 4
  br label %15

15:                                               ; preds = %24, %0
  %16 = load i32, i32* %3, align 4
  %17 = load i32, i32* %6, align 4
  %18 = sub nsw i32 %17, 1
  %19 = icmp sle i32 %16, %18
  br i1 %19, label %20, label %27

20:                                               ; preds = %15
  %21 = load i32, i32* %3, align 4
  %22 = sext i32 %21 to i64
  %23 = getelementptr inbounds [500 x i32], [500 x i32]* %7, i64 0, i64 %22
  store i32 0, i32* %23, align 4
  br label %24

24:                                               ; preds = %20
  %25 = load i32, i32* %3, align 4
  %26 = add nsw i32 %25, 1
  store i32 %26, i32* %3, align 4
  br label %15

27:                                               ; preds = %15
  store i32 0, i32* %3, align 4
  br label %28

28:                                               ; preds = %71, %27
  %29 = load i32, i32* %3, align 4
  %30 = load i32, i32* %6, align 4
  %31 = sub nsw i32 %30, 1
  %32 = icmp sle i32 %29, %31
  br i1 %32, label %33, label %74

33:                                               ; preds = %28
  store i32 0, i32* %8, align 4
  br label %34

34:                                               ; preds = %65, %33
  %35 = load i32, i32* %3, align 4
  %36 = load i32, i32* %8, align 4
  %37 = sub nsw i32 %35, %36
  %38 = sext i32 %37 to i64
  %39 = getelementptr inbounds [500 x i8], [500 x i8]* %2, i64 0, i64 %38
  %40 = load i8, i8* %39, align 1
  %41 = sext i8 %40 to i32
  %42 = load i32, i32* %3, align 4
  %43 = add nsw i32 %42, 1
  %44 = load i32, i32* %8, align 4
  %45 = add nsw i32 %43, %44
  %46 = sext i32 %45 to i64
  %47 = getelementptr inbounds [500 x i8], [500 x i8]* %2, i64 0, i64 %46
  %48 = load i8, i8* %47, align 1
  %49 = sext i8 %48 to i32
  %50 = icmp eq i32 %41, %49
  br i1 %50, label %51, label %66

51:                                               ; preds = %34
  %52 = load i32, i32* %8, align 4
  %53 = add nsw i32 %52, 1
  store i32 %53, i32* %8, align 4
  %54 = load i32, i32* %3, align 4
  %55 = load i32, i32* %8, align 4
  %56 = sub nsw i32 %54, %55
  %57 = icmp slt i32 %56, 0
  br i1 %57, label %64, label %58

58:                                               ; preds = %51
  %59 = load i32, i32* %3, align 4
  %60 = load i32, i32* %8, align 4
  %61 = add nsw i32 %59, %60
  %62 = load i32, i32* %6, align 4
  %63 = icmp sgt i32 %61, %62
  br i1 %63, label %64, label %65

64:                                               ; preds = %58, %51
  br label %66

65:                                               ; preds = %58
  br label %34

66:                                               ; preds = %64, %34
  %67 = load i32, i32* %8, align 4
  %68 = load i32, i32* %3, align 4
  %69 = sext i32 %68 to i64
  %70 = getelementptr inbounds [500 x i32], [500 x i32]* %7, i64 0, i64 %69
  store i32 %67, i32* %70, align 4
  br label %71

71:                                               ; preds = %66
  %72 = load i32, i32* %3, align 4
  %73 = add nsw i32 %72, 1
  store i32 %73, i32* %3, align 4
  br label %28

74:                                               ; preds = %28
  store i32 1, i32* %4, align 4
  br label %75

75:                                               ; preds = %122, %74
  %76 = load i32, i32* %4, align 4
  %77 = load i32, i32* %6, align 4
  %78 = sdiv i32 %77, 2
  %79 = add nsw i32 %78, 1
  %80 = icmp sle i32 %76, %79
  br i1 %80, label %81, label %125

81:                                               ; preds = %75
  store i32 1, i32* %3, align 4
  br label %82

82:                                               ; preds = %118, %81
  %83 = load i32, i32* %3, align 4
  %84 = load i32, i32* %6, align 4
  %85 = sub nsw i32 %84, 2
  %86 = icmp sle i32 %83, %85
  br i1 %86, label %87, label %121

87:                                               ; preds = %82
  %88 = load i32, i32* %3, align 4
  %89 = sext i32 %88 to i64
  %90 = getelementptr inbounds [500 x i32], [500 x i32]* %7, i64 0, i64 %89
  %91 = load i32, i32* %90, align 4
  %92 = load i32, i32* %4, align 4
  %93 = icmp sge i32 %91, %92
  br i1 %93, label %94, label %117

94:                                               ; preds = %87
  %95 = load i32, i32* %3, align 4
  %96 = load i32, i32* %4, align 4
  %97 = sub nsw i32 %95, %96
  %98 = add nsw i32 %97, 1
  store i32 %98, i32* %5, align 4
  br label %99

99:                                               ; preds = %112, %94
  %100 = load i32, i32* %5, align 4
  %101 = load i32, i32* %3, align 4
  %102 = load i32, i32* %4, align 4
  %103 = add nsw i32 %101, %102
  %104 = icmp sle i32 %100, %103
  br i1 %104, label %105, label %115

105:                                              ; preds = %99
  %106 = load i32, i32* %5, align 4
  %107 = sext i32 %106 to i64
  %108 = getelementptr inbounds [500 x i8], [500 x i8]* %2, i64 0, i64 %107
  %109 = load i8, i8* %108, align 1
  %110 = sext i8 %109 to i32
  %111 = call i32 (i8*, ...) @printf(i8* getelementptr inbounds ([3 x i8], [3 x i8]* @.str, i64 0, i64 0), i32 %110)
  br label %112

112:                                              ; preds = %105
  %113 = load i32, i32* %5, align 4
  %114 = add nsw i32 %113, 1
  store i32 %114, i32* %5, align 4
  br label %99

115:                                              ; preds = %99
  %116 = call i32 (i8*, ...) @printf(i8* getelementptr inbounds ([2 x i8], [2 x i8]* @.str.1, i64 0, i64 0))
  br label %117

117:                                              ; preds = %115, %87
  br label %118

118:                                              ; preds = %117
  %119 = load i32, i32* %3, align 4
  %120 = add nsw i32 %119, 1
  store i32 %120, i32* %3, align 4
  br label %82

121:                                              ; preds = %82
  br label %122

122:                                              ; preds = %121
  %123 = load i32, i32* %4, align 4
  %124 = add nsw i32 %123, 1
  store i32 %124, i32* %4, align 4
  br label %75

125:                                              ; preds = %75
  %126 = load i32, i32* %1, align 4
  ret i32 %126
}

declare dso_local i32 @gets(...) #1

; Function Attrs: nounwind readonly
declare dso_local i64 @strlen(i8*) #2

declare dso_local i32 @printf(i8*, ...) #1


!llvm.module.flags = !{!0}
!llvm.ident = !{!1}

!0 = !{i32 1, !"wchar_size", i32 4}
!1 = !{!"clang version 10.0.0-4ubuntu1 "}
